target datalayout = "e-m:e-p270:32:32-p271:32:32-p272:64:64-i64:64-i128:128-f80:128-n8:16:32:64-S128"
target triple = "x86_64-pc-linux-gnu"

%struct.jpeg_compress_struct = type { ptr, ptr, ptr, ptr, i32, i32, ptr, i32, i32, i32, i32, double, i32, i32, i32, ptr, [4 x ptr], [4 x ptr], [4 x ptr], [16 x i8], [16 x i8], [16 x i8], i32, ptr, i32, i32, i32, i32, i32, i32, i32, i32, i32, i8, i8, i8, i16, i16, i32, i32, i32, i32, i32, i32, i32, [4 x ptr], i32, i32, i32, [10 x i32], i32, i32, i32, i32, ptr, ptr, ptr, ptr, ptr, ptr, ptr, ptr, ptr, ptr, i32 }
%struct.jpeg_error_mgr = type { ptr, ptr, ptr, ptr, ptr, i32, %union.anon, i32, i64, ptr, i32, ptr, i32, i32 }
%union.anon = type { [8 x i32], [48 x i8] }
%struct.jpeg_memory_mgr = type { ptr, ptr, ptr, ptr, ptr, ptr, ptr, ptr, ptr, ptr, ptr, i64, i64 }
%struct.huff_entropy_encoder = type { %struct.jpeg_entropy_encoder, %struct.savable_state, i32, i32, [4 x ptr], [4 x ptr], [4 x ptr], [4 x ptr], i32 }
%struct.jpeg_entropy_encoder = type { ptr, ptr, ptr, ptr }
%struct.savable_state = type { %union.anon.0, i32, [4 x i32] }
%union.anon.0 = type { i64 }
%struct.jpeg_component_info = type { i32, i32, i32, i32, i32, i32, i32, i32, i32, i32, i32, i32, i32, i32, i32, i32, i32, i32, i32, ptr, ptr }

; Function Attrs: nounwind uwtable
define internal void @start_pass_huff(ptr noundef %0, i32 noundef %1) #0 {
  %3 = alloca ptr, align 8
  %4 = alloca i32, align 4
  %5 = alloca ptr, align 8
  %6 = alloca i32, align 4
  %7 = alloca i32, align 4
  %8 = alloca i32, align 4
  %9 = alloca ptr, align 8
  store ptr %0, ptr %3, align 8, !tbaa !3
  store i32 %1, ptr %4, align 4, !tbaa !8
  call void @llvm.lifetime.start.p0(i64 8, ptr %5) #5
  %10 = load ptr, ptr %3, align 8, !tbaa !3
  %11 = getelementptr inbounds nuw %struct.jpeg_compress_struct, ptr %10, i32 0, i32 62
  %12 = load ptr, ptr %11, align 8, !tbaa !63
  store ptr %12, ptr %5, align 8, !tbaa !10
  call void @llvm.lifetime.start.p0(i64 4, ptr %6) #5
  call void @llvm.lifetime.start.p0(i64 4, ptr %7) #5
  call void @llvm.lifetime.start.p0(i64 4, ptr %8) #5
  call void @llvm.lifetime.start.p0(i64 8, ptr %9) #5
  %13 = load i32, ptr %4, align 4, !tbaa !8
  %14 = icmp ne i32 %13, 0
  br i1 %14, label %15, label %22

15:                                               ; preds = %2
  %16 = load ptr, ptr %5, align 8, !tbaa !10
  %17 = getelementptr inbounds nuw %struct.huff_entropy_encoder, ptr %16, i32 0, i32 0
  %18 = getelementptr inbounds nuw %struct.jpeg_entropy_encoder, ptr %17, i32 0, i32 1
  store ptr @encode_mcu_gather, ptr %18, align 8, !tbaa !69
  %19 = load ptr, ptr %5, align 8, !tbaa !10
  %20 = getelementptr inbounds nuw %struct.huff_entropy_encoder, ptr %19, i32 0, i32 0
  %21 = getelementptr inbounds nuw %struct.jpeg_entropy_encoder, ptr %20, i32 0, i32 3
  store ptr @finish_pass_gather, ptr %21, align 8, !tbaa !70
  br label %29

22:                                               ; preds = %2
  %23 = load ptr, ptr %5, align 8, !tbaa !10
  %24 = getelementptr inbounds nuw %struct.huff_entropy_encoder, ptr %23, i32 0, i32 0
  %25 = getelementptr inbounds nuw %struct.jpeg_entropy_encoder, ptr %24, i32 0, i32 1
  store ptr @encode_mcu_huff, ptr %25, align 8, !tbaa !69
  %26 = load ptr, ptr %5, align 8, !tbaa !10
  %27 = getelementptr inbounds nuw %struct.huff_entropy_encoder, ptr %26, i32 0, i32 0
  %28 = getelementptr inbounds nuw %struct.jpeg_entropy_encoder, ptr %27, i32 0, i32 3
  store ptr @finish_pass_huff, ptr %28, align 8, !tbaa !70
  br label %29

29:                                               ; preds = %22, %15
  %30 = call i32 @jsimd_can_huff_encode_one_block()
  %31 = load ptr, ptr %5, align 8, !tbaa !10
  %32 = getelementptr inbounds nuw %struct.huff_entropy_encoder, ptr %31, i32 0, i32 8
  store i32 %30, ptr %32, align 8, !tbaa !71
  store i32 0, ptr %6, align 4, !tbaa !8
  br label %33

33:                                               ; preds = %177, %29
  %34 = load i32, ptr %6, align 4, !tbaa !8
  %35 = load ptr, ptr %3, align 8, !tbaa !3
  %36 = getelementptr inbounds nuw %struct.jpeg_compress_struct, ptr %35, i32 0, i32 44
  %37 = load i32, ptr %36, align 4, !tbaa !72
  %38 = icmp slt i32 %34, %37
  br i1 %38, label %39, label %180

39:                                               ; preds = %33
  %40 = load ptr, ptr %3, align 8, !tbaa !3
  %41 = getelementptr inbounds nuw %struct.jpeg_compress_struct, ptr %40, i32 0, i32 45
  %42 = load i32, ptr %6, align 4, !tbaa !8
  %43 = sext i32 %42 to i64
  %44 = getelementptr inbounds [4 x ptr], ptr %41, i64 0, i64 %43
  %45 = load ptr, ptr %44, align 8, !tbaa !10
  store ptr %45, ptr %9, align 8, !tbaa !10
  %46 = load ptr, ptr %9, align 8, !tbaa !10
  %47 = getelementptr inbounds nuw %struct.jpeg_component_info, ptr %46, i32 0, i32 5
  %48 = load i32, ptr %47, align 4, !tbaa !73
  store i32 %48, ptr %7, align 4, !tbaa !8
  %49 = load ptr, ptr %9, align 8, !tbaa !10
  %50 = getelementptr inbounds nuw %struct.jpeg_component_info, ptr %49, i32 0, i32 6
  %51 = load i32, ptr %50, align 8, !tbaa !75
  store i32 %51, ptr %8, align 4, !tbaa !8
  %52 = load i32, ptr %4, align 4, !tbaa !8
  %53 = icmp ne i32 %52, 0
  br i1 %53, label %54, label %155

54:                                               ; preds = %39
  %55 = load i32, ptr %7, align 4, !tbaa !8
  %56 = icmp slt i32 %55, 0
  br i1 %56, label %60, label %57

57:                                               ; preds = %54
  %58 = load i32, ptr %7, align 4, !tbaa !8
  %59 = icmp sge i32 %58, 4
  br i1 %59, label %60, label %77

60:                                               ; preds = %57, %54
  %61 = load ptr, ptr %3, align 8, !tbaa !3
  %62 = getelementptr inbounds nuw %struct.jpeg_compress_struct, ptr %61, i32 0, i32 0
  %63 = load ptr, ptr %62, align 8, !tbaa !11
  %64 = getelementptr inbounds nuw %struct.jpeg_error_mgr, ptr %63, i32 0, i32 5
  store i32 50, ptr %64, align 8, !tbaa !28
  %65 = load i32, ptr %7, align 4, !tbaa !8
  %66 = load ptr, ptr %3, align 8, !tbaa !3
  %67 = getelementptr inbounds nuw %struct.jpeg_compress_struct, ptr %66, i32 0, i32 0
  %68 = load ptr, ptr %67, align 8, !tbaa !11
  %69 = getelementptr inbounds nuw %struct.jpeg_error_mgr, ptr %68, i32 0, i32 6
  %70 = getelementptr inbounds [8 x i32], ptr %69, i64 0, i64 0
  store i32 %65, ptr %70, align 4, !tbaa !32
  %71 = load ptr, ptr %3, align 8, !tbaa !3
  %72 = getelementptr inbounds nuw %struct.jpeg_compress_struct, ptr %71, i32 0, i32 0
  %73 = load ptr, ptr %72, align 8, !tbaa !11
  %74 = getelementptr inbounds nuw %struct.jpeg_error_mgr, ptr %73, i32 0, i32 0
  %75 = load ptr, ptr %74, align 8, !tbaa !33
  %76 = load ptr, ptr %3, align 8, !tbaa !3
  call void %75(ptr noundef %76)
  br label %77

77:                                               ; preds = %60, %57
  %78 = load i32, ptr %8, align 4, !tbaa !8
  %79 = icmp slt i32 %78, 0
  br i1 %79, label %83, label %80

80:                                               ; preds = %77
  %81 = load i32, ptr %8, align 4, !tbaa !8
  %82 = icmp sge i32 %81, 4
  br i1 %82, label %83, label %100

83:                                               ; preds = %80, %77
  %84 = load ptr, ptr %3, align 8, !tbaa !3
  %85 = getelementptr inbounds nuw %struct.jpeg_compress_struct, ptr %84, i32 0, i32 0
  %86 = load ptr, ptr %85, align 8, !tbaa !11
  %87 = getelementptr inbounds nuw %struct.jpeg_error_mgr, ptr %86, i32 0, i32 5
  store i32 50, ptr %87, align 8, !tbaa !28
  %88 = load i32, ptr %8, align 4, !tbaa !8
  %89 = load ptr, ptr %3, align 8, !tbaa !3
  %90 = getelementptr inbounds nuw %struct.jpeg_compress_struct, ptr %89, i32 0, i32 0
  %91 = load ptr, ptr %90, align 8, !tbaa !11
  %92 = getelementptr inbounds nuw %struct.jpeg_error_mgr, ptr %91, i32 0, i32 6
  %93 = getelementptr inbounds [8 x i32], ptr %92, i64 0, i64 0
  store i32 %88, ptr %93, align 4, !tbaa !32
  %94 = load ptr, ptr %3, align 8, !tbaa !3
  %95 = getelementptr inbounds nuw %struct.jpeg_compress_struct, ptr %94, i32 0, i32 0
  %96 = load ptr, ptr %95, align 8, !tbaa !11
  %97 = getelementptr inbounds nuw %struct.jpeg_error_mgr, ptr %96, i32 0, i32 0
  %98 = load ptr, ptr %97, align 8, !tbaa !33
  %99 = load ptr, ptr %3, align 8, !tbaa !3
  call void %98(ptr noundef %99)
  br label %100

100:                                              ; preds = %83, %80
  %101 = load ptr, ptr %5, align 8, !tbaa !10
  %102 = getelementptr inbounds nuw %struct.huff_entropy_encoder, ptr %101, i32 0, i32 6
  %103 = load i32, ptr %7, align 4, !tbaa !8
  %104 = sext i32 %103 to i64
  %105 = getelementptr inbounds [4 x ptr], ptr %102, i64 0, i64 %104
  %106 = load ptr, ptr %105, align 8, !tbaa !46
  %107 = icmp eq ptr %106, null
  br i1 %107, label %108, label %121

108:                                              ; preds = %100
  %109 = load ptr, ptr %3, align 8, !tbaa !3
  %110 = getelementptr inbounds nuw %struct.jpeg_compress_struct, ptr %109, i32 0, i32 1
  %111 = load ptr, ptr %110, align 8, !tbaa !34
  %112 = getelementptr inbounds nuw %struct.jpeg_memory_mgr, ptr %111, i32 0, i32 0
  %113 = load ptr, ptr %112, align 8, !tbaa !35
  %114 = load ptr, ptr %3, align 8, !tbaa !3
  %115 = call ptr %113(ptr noundef %114, i32 noundef 1, i64 noundef 2056)
  %116 = load ptr, ptr %5, align 8, !tbaa !10
  %117 = getelementptr inbounds nuw %struct.huff_entropy_encoder, ptr %116, i32 0, i32 6
  %118 = load i32, ptr %7, align 4, !tbaa !8
  %119 = sext i32 %118 to i64
  %120 = getelementptr inbounds [4 x ptr], ptr %117, i64 0, i64 %119
  store ptr %115, ptr %120, align 8, !tbaa !46
  br label %121

121:                                              ; preds = %108, %100
  %122 = load ptr, ptr %5, align 8, !tbaa !10
  %123 = getelementptr inbounds nuw %struct.huff_entropy_encoder, ptr %122, i32 0, i32 6
  %124 = load i32, ptr %7, align 4, !tbaa !8
  %125 = sext i32 %124 to i64
  %126 = getelementptr inbounds [4 x ptr], ptr %123, i64 0, i64 %125
  %127 = load ptr, ptr %126, align 8, !tbaa !46
  call void @llvm.memset.p0.i64(ptr align 8 %127, i8 0, i64 2056, i1 false)
  %128 = load ptr, ptr %5, align 8, !tbaa !10
  %129 = getelementptr inbounds nuw %struct.huff_entropy_encoder, ptr %128, i32 0, i32 7
  %130 = load i32, ptr %8, align 4, !tbaa !8
  %131 = sext i32 %130 to i64
  %132 = getelementptr inbounds [4 x ptr], ptr %129, i64 0, i64 %131
  %133 = load ptr, ptr %132, align 8, !tbaa !46
  %134 = icmp eq ptr %133, null
  br i1 %134, label %135, label %148

135:                                              ; preds = %121
  %136 = load ptr, ptr %3, align 8, !tbaa !3
  %137 = getelementptr inbounds nuw %struct.jpeg_compress_struct, ptr %136, i32 0, i32 1
  %138 = load ptr, ptr %137, align 8, !tbaa !34
  %139 = getelementptr inbounds nuw %struct.jpeg_memory_mgr, ptr %138, i32 0, i32 0
  %140 = load ptr, ptr %139, align 8, !tbaa !35
  %141 = load ptr, ptr %3, align 8, !tbaa !3
  %142 = call ptr %140(ptr noundef %141, i32 noundef 1, i64 noundef 2056)
  %143 = load ptr, ptr %5, align 8, !tbaa !10
  %144 = getelementptr inbounds nuw %struct.huff_entropy_encoder, ptr %143, i32 0, i32 7
  %145 = load i32, ptr %8, align 4, !tbaa !8
  %146 = sext i32 %145 to i64
  %147 = getelementptr inbounds [4 x ptr], ptr %144, i64 0, i64 %146
  store ptr %142, ptr %147, align 8, !tbaa !46
  br label %148

148:                                              ; preds = %135, %121
  %149 = load ptr, ptr %5, align 8, !tbaa !10
  %150 = getelementptr inbounds nuw %struct.huff_entropy_encoder, ptr %149, i32 0, i32 7
  %151 = load i32, ptr %8, align 4, !tbaa !8
  %152 = sext i32 %151 to i64
  %153 = getelementptr inbounds [4 x ptr], ptr %150, i64 0, i64 %152
  %154 = load ptr, ptr %153, align 8, !tbaa !46
  call void @llvm.memset.p0.i64(ptr align 8 %154, i8 0, i64 2056, i1 false)
  br label %170

155:                                              ; preds = %39
  %156 = load ptr, ptr %3, align 8, !tbaa !3
  %157 = load i32, ptr %7, align 4, !tbaa !8
  %158 = load ptr, ptr %5, align 8, !tbaa !10
  %159 = getelementptr inbounds nuw %struct.huff_entropy_encoder, ptr %158, i32 0, i32 4
  %160 = load i32, ptr %7, align 4, !tbaa !8
  %161 = sext i32 %160 to i64
  %162 = getelementptr inbounds [4 x ptr], ptr %159, i64 0, i64 %161
  call void @jpeg_make_c_derived_tbl(ptr noundef %156, i32 noundef 1, i32 noundef %157, ptr noundef %162)
  %163 = load ptr, ptr %3, align 8, !tbaa !3
  %164 = load i32, ptr %8, align 4, !tbaa !8
  %165 = load ptr, ptr %5, align 8, !tbaa !10
  %166 = getelementptr inbounds nuw %struct.huff_entropy_encoder, ptr %165, i32 0, i32 5
  %167 = load i32, ptr %8, align 4, !tbaa !8
  %168 = sext i32 %167 to i64
  %169 = getelementptr inbounds [4 x ptr], ptr %166, i64 0, i64 %168
  call void @jpeg_make_c_derived_tbl(ptr noundef %163, i32 noundef 0, i32 noundef %164, ptr noundef %169)
  br label %170

170:                                              ; preds = %155, %148
  %171 = load ptr, ptr %5, align 8, !tbaa !10
  %172 = getelementptr inbounds nuw %struct.huff_entropy_encoder, ptr %171, i32 0, i32 1
  %173 = getelementptr inbounds nuw %struct.savable_state, ptr %172, i32 0, i32 2
  %174 = load i32, ptr %6, align 4, !tbaa !8
  %175 = sext i32 %174 to i64
  %176 = getelementptr inbounds [4 x i32], ptr %173, i64 0, i64 %175
  store i32 0, ptr %176, align 4, !tbaa !8
  br label %177

177:                                              ; preds = %170
  %178 = load i32, ptr %6, align 4, !tbaa !8
  %179 = add nsw i32 %178, 1
  store i32 %179, ptr %6, align 4, !tbaa !8
  br label %33, !llvm.loop !76

180:                                              ; preds = %33
  %181 = load ptr, ptr %5, align 8, !tbaa !10
  %182 = getelementptr inbounds nuw %struct.huff_entropy_encoder, ptr %181, i32 0, i32 8
  %183 = load i32, ptr %182, align 8, !tbaa !71
  %184 = icmp ne i32 %183, 0
  br i1 %184, label %185, label %192

185:                                              ; preds = %180
  %186 = load ptr, ptr %5, align 8, !tbaa !10
  %187 = getelementptr inbounds nuw %struct.huff_entropy_encoder, ptr %186, i32 0, i32 1
  %188 = getelementptr inbounds nuw %struct.savable_state, ptr %187, i32 0, i32 0
  store i64 0, ptr %188, align 8, !tbaa !32
  %189 = load ptr, ptr %5, align 8, !tbaa !10
  %190 = getelementptr inbounds nuw %struct.huff_entropy_encoder, ptr %189, i32 0, i32 1
  %191 = getelementptr inbounds nuw %struct.savable_state, ptr %190, i32 0, i32 1
  store i32 64, ptr %191, align 8, !tbaa !77
  br label %199

192:                                              ; preds = %180
  %193 = load ptr, ptr %5, align 8, !tbaa !10
  %194 = getelementptr inbounds nuw %struct.huff_entropy_encoder, ptr %193, i32 0, i32 1
  %195 = getelementptr inbounds nuw %struct.savable_state, ptr %194, i32 0, i32 0
  store i64 0, ptr %195, align 8, !tbaa !32
  %196 = load ptr, ptr %5, align 8, !tbaa !10
  %197 = getelementptr inbounds nuw %struct.huff_entropy_encoder, ptr %196, i32 0, i32 1
  %198 = getelementptr inbounds nuw %struct.savable_state, ptr %197, i32 0, i32 1
  store i32 64, ptr %198, align 8, !tbaa !77
  br label %199

199:                                              ; preds = %192, %185
  %200 = load ptr, ptr %3, align 8, !tbaa !3
  %201 = getelementptr inbounds nuw %struct.jpeg_compress_struct, ptr %200, i32 0, i32 30
  %202 = load i32, ptr %201, align 8, !tbaa !78
  %203 = load ptr, ptr %5, align 8, !tbaa !10
  %204 = getelementptr inbounds nuw %struct.huff_entropy_encoder, ptr %203, i32 0, i32 2
  store i32 %202, ptr %204, align 8, !tbaa !79
  %205 = load ptr, ptr %5, align 8, !tbaa !10
  %206 = getelementptr inbounds nuw %struct.huff_entropy_encoder, ptr %205, i32 0, i32 3
  store i32 0, ptr %206, align 4, !tbaa !80
  call void @llvm.lifetime.end.p0(i64 8, ptr %9) #5
  call void @llvm.lifetime.end.p0(i64 4, ptr %8) #5
  call void @llvm.lifetime.end.p0(i64 4, ptr %7) #5
  call void @llvm.lifetime.end.p0(i64 4, ptr %6) #5
  call void @llvm.lifetime.end.p0(i64 8, ptr %5) #5
  ret void
}