; Function Attrs: nounwind uwtable
define internal void @start_pass_huff(ptr noundef %0, i32 noundef %1) #0 {
  %3 = getelementptr inbounds nuw i8, ptr %0, i64 496
  %4 = load ptr, ptr %3, align 8, !tbaa !57
  %.not = icmp eq i32 %1, 0
  %spec.select = select i1 %.not, ptr @encode_mcu_huff, ptr @encode_mcu_gather
  %spec.select73 = select i1 %.not, ptr @finish_pass_huff, ptr @finish_pass_gather
  %5 = getelementptr inbounds nuw i8, ptr %4, i64 8
  store ptr %spec.select, ptr %5, align 8, !tbaa !65
  %6 = getelementptr inbounds nuw i8, ptr %4, i64 24
  store ptr %spec.select73, ptr %6, align 8, !tbaa !66
  %7 = tail call i32 @jsimd_can_huff_encode_one_block() #6
  %8 = getelementptr inbounds nuw i8, ptr %4, i64 200
  store i32 %7, ptr %8, align 8, !tbaa !67
  %9 = getelementptr inbounds nuw i8, ptr %0, i64 324
  %10 = load i32, ptr %9, align 4, !tbaa !68
  %11 = icmp sgt i32 %10, 0
  br i1 %11, label %.lr.ph, label %._crit_edge

.lr.ph:                                           ; preds = %2
  %12 = getelementptr inbounds nuw i8, ptr %0, i64 328
  %13 = getelementptr inbounds nuw i8, ptr %4, i64 136
  %14 = getelementptr inbounds nuw i8, ptr %0, i64 8
  %15 = getelementptr inbounds nuw i8, ptr %4, i64 168
  %16 = getelementptr inbounds nuw i8, ptr %4, i64 72
  %17 = getelementptr inbounds nuw i8, ptr %4, i64 104
  %18 = getelementptr inbounds nuw i8, ptr %4, i64 44
  br i1 %.not, label %.lr.ph.split.us, label %.lr.ph.split

.lr.ph.split.us:                                  ; preds = %.lr.ph, %.lr.ph.split.us
  %indvars.iv69 = phi i64 [ %indvars.iv.next70, %.lr.ph.split.us ], [ 0, %.lr.ph ]
  %19 = getelementptr inbounds nuw [4 x ptr], ptr %12, i64 0, i64 %indvars.iv69
  %20 = load ptr, ptr %19, align 8, !tbaa !30
  %21 = getelementptr inbounds nuw i8, ptr %20, i64 20
  %22 = load i32, ptr %21, align 4, !tbaa !69
  %23 = getelementptr inbounds nuw i8, ptr %20, i64 24
  %24 = load i32, ptr %23, align 8, !tbaa !71
  %25 = sext i32 %22 to i64
  %26 = getelementptr inbounds [4 x ptr], ptr %16, i64 0, i64 %25
  tail call void @jpeg_make_c_derived_tbl(ptr noundef nonnull %0, i32 noundef 1, i32 noundef %22, ptr noundef nonnull %26)
  %27 = sext i32 %24 to i64
  %28 = getelementptr inbounds [4 x ptr], ptr %17, i64 0, i64 %27
  tail call void @jpeg_make_c_derived_tbl(ptr noundef nonnull %0, i32 noundef 0, i32 noundef %24, ptr noundef nonnull %28)
  %29 = getelementptr inbounds nuw [4 x i32], ptr %18, i64 0, i64 %indvars.iv69
  store i32 0, ptr %29, align 4, !tbaa !36
  %indvars.iv.next70 = add nuw nsw i64 %indvars.iv69, 1
  %30 = load i32, ptr %9, align 4, !tbaa !68
  %31 = sext i32 %30 to i64
  %32 = icmp slt i64 %indvars.iv.next70, %31
  br i1 %32, label %.lr.ph.split.us, label %._crit_edge, !llvm.loop !72

.lr.ph.split:                                     ; preds = %.lr.ph, %71
  %indvars.iv = phi i64 [ %indvars.iv.next, %71 ], [ 0, %.lr.ph ]
  %33 = getelementptr inbounds nuw [4 x ptr], ptr %12, i64 0, i64 %indvars.iv
  %34 = load ptr, ptr %33, align 8, !tbaa !30
  %35 = getelementptr inbounds nuw i8, ptr %34, i64 20
  %36 = load i32, ptr %35, align 4, !tbaa !69
  %37 = getelementptr inbounds nuw i8, ptr %34, i64 24
  %38 = load i32, ptr %37, align 8, !tbaa !71
  %or.cond = icmp ugt i32 %36, 3
  br i1 %or.cond, label %39, label %45

39:                                               ; preds = %.lr.ph.split
  %40 = load ptr, ptr %0, align 8, !tbaa !3
  %41 = getelementptr inbounds nuw i8, ptr %40, i64 40
  store i32 50, ptr %41, align 8, !tbaa !24
  %42 = getelementptr inbounds nuw i8, ptr %40, i64 44
  store i32 %36, ptr %42, align 4, !tbaa !28
  %43 = load ptr, ptr %0, align 8, !tbaa !3
  %44 = load ptr, ptr %43, align 8, !tbaa !29
  tail call void %44(ptr noundef nonnull %0) #6
  br label %45

45:                                               ; preds = %.lr.ph.split, %39
  %or.cond3 = icmp ugt i32 %38, 3
  br i1 %or.cond3, label %46, label %52

46:                                               ; preds = %45
  %47 = load ptr, ptr %0, align 8, !tbaa !3
  %48 = getelementptr inbounds nuw i8, ptr %47, i64 40
  store i32 50, ptr %48, align 8, !tbaa !24
  %49 = getelementptr inbounds nuw i8, ptr %47, i64 44
  store i32 %38, ptr %49, align 4, !tbaa !28
  %50 = load ptr, ptr %0, align 8, !tbaa !3
  %51 = load ptr, ptr %50, align 8, !tbaa !29
  tail call void %51(ptr noundef nonnull %0) #6
  br label %52

52:                                               ; preds = %45, %46
  %53 = sext i32 %36 to i64
  %54 = getelementptr inbounds [4 x ptr], ptr %13, i64 0, i64 %53
  %55 = load ptr, ptr %54, align 8, !tbaa !62
  %56 = icmp eq ptr %55, null
  br i1 %56, label %57, label %61

57:                                               ; preds = %52
  %58 = load ptr, ptr %14, align 8, !tbaa !31
  %59 = load ptr, ptr %58, align 8, !tbaa !32
  %60 = tail call ptr %59(ptr noundef nonnull %0, i32 noundef 1, i64 noundef 2056) #6
  store ptr %60, ptr %54, align 8, !tbaa !62
  br label %61

61:                                               ; preds = %57, %52
  %62 = phi ptr [ %60, %57 ], [ %55, %52 ]
  tail call void @llvm.memset.p0.i64(ptr noundef nonnull align 8 dereferenceable(2056) %62, i8 0, i64 2056, i1 false)
  %63 = sext i32 %38 to i64
  %64 = getelementptr inbounds [4 x ptr], ptr %15, i64 0, i64 %63
  %65 = load ptr, ptr %64, align 8, !tbaa !62
  %66 = icmp eq ptr %65, null
  br i1 %66, label %67, label %71

67:                                               ; preds = %61
  %68 = load ptr, ptr %14, align 8, !tbaa !31
  %69 = load ptr, ptr %68, align 8, !tbaa !32
  %70 = tail call ptr %69(ptr noundef nonnull %0, i32 noundef 1, i64 noundef 2056) #6
  store ptr %70, ptr %64, align 8, !tbaa !62
  br label %71

71:                                               ; preds = %67, %61
  %72 = phi ptr [ %70, %67 ], [ %65, %61 ]
  tail call void @llvm.memset.p0.i64(ptr noundef nonnull align 8 dereferenceable(2056) %72, i8 0, i64 2056, i1 false)
  %73 = getelementptr inbounds nuw [4 x i32], ptr %18, i64 0, i64 %indvars.iv
  store i32 0, ptr %73, align 4, !tbaa !36
  %indvars.iv.next = add nuw nsw i64 %indvars.iv, 1
  %74 = load i32, ptr %9, align 4, !tbaa !68
  %75 = sext i32 %74 to i64
  %76 = icmp slt i64 %indvars.iv.next, %75
  br i1 %76, label %.lr.ph.split, label %._crit_edge, !llvm.loop !72

._crit_edge:                                      ; preds = %71, %.lr.ph.split.us, %2
  %77 = getelementptr inbounds nuw i8, ptr %4, i64 32
  store i64 0, ptr %77, align 8, !tbaa !28
  %78 = getelementptr inbounds nuw i8, ptr %4, i64 40
  store i32 64, ptr %78, align 8, !tbaa !73
  %79 = getelementptr inbounds nuw i8, ptr %0, i64 280
  %80 = load i32, ptr %79, align 8, !tbaa !74
  %81 = getelementptr inbounds nuw i8, ptr %4, i64 64
  store i32 %80, ptr %81, align 8, !tbaa !75
  %82 = getelementptr inbounds nuw i8, ptr %4, i64 68
  store i32 0, ptr %82, align 4, !tbaa !76
  ret void
}